; Function Attrs: nounwind uwtable
define dso_local range(i32 -5, 1) i32 @onig_ext_set_pattern(ptr noundef captures(none) %0, ptr noundef %1, ptr noundef %2) local_unnamed_addr #6 {
  %4 = getelementptr inbounds nuw i8, ptr %0, i64 448
  %5 = load ptr, ptr %4, align 8, !tbaa !8
  %6 = icmp eq ptr %5, null
  br i1 %6, label %7, label %9

7:                                                ; preds = %3
  %calloc.i = tail call dereferenceable_or_null(40) ptr @calloc(i64 1, i64 40)
  %8 = icmp eq ptr %calloc.i, null
  br i1 %8, label %onig_get_regex_ext.exit, label %.thread.i

.thread.i:                                        ; preds = %7
  store ptr %calloc.i, ptr %4, align 8, !tbaa !8
  br label %9

9:                                                ; preds = %.thread.i, %3
  %.1.i.ph = phi ptr [ %5, %3 ], [ %calloc.i, %.thread.i ]
  %10 = getelementptr inbounds nuw i8, ptr %0, i64 96
  %11 = load ptr, ptr %10, align 8, !tbaa !13
  %12 = tail call ptr @onigenc_strdup(ptr noundef %11, ptr noundef %1, ptr noundef %2) #22
  %13 = icmp eq ptr %12, null
  br i1 %13, label %onig_get_regex_ext.exit, label %14

14:                                               ; preds = %9
  store ptr %12, ptr %.1.i.ph, align 8, !tbaa !14
  %15 = ptrtoint ptr %2 to i64
  %16 = ptrtoint ptr %1 to i64
  %17 = sub i64 %15, %16
  %18 = getelementptr inbounds i8, ptr %12, i64 %17
  %19 = getelementptr inbounds nuw i8, ptr %.1.i.ph, i64 8
  store ptr %18, ptr %19, align 8, !tbaa !16
  br label %onig_get_regex_ext.exit

onig_get_regex_ext.exit:                          ; preds = %7, %9, %14
  %.0 = phi i32 [ 0, %14 ], [ -5, %9 ], [ -5, %7 ]
  ret i32 %.0
}